target datalayout = "e-m:e-p270:32:32-p271:32:32-p272:64:64-i64:64-i128:128-f80:128-n8:16:32:64-S128"
target triple = "x86_64-pc-linux-gnu"

%struct.Aig_Man_t_ = type { ptr, ptr, ptr, ptr, ptr, ptr, ptr, %struct.Aig_Obj_t_, i32, i32, i32, i32, i32, i32, [7 x i32], i32, ptr, i32, ptr, i32, ptr, i32, i32, i32, ptr, i32, i32, i32, i32, i32, ptr, ptr, i32, ptr, ptr, i32, ptr, ptr, i32, i32, i32, ptr, ptr, ptr, ptr, ptr, ptr, ptr, ptr, ptr, ptr, ptr, ptr, ptr, ptr, i32, ptr, ptr, ptr, ptr, i32, i64, i64, i64, ptr, ptr }
%struct.Aig_Obj_t_ = type { %union.anon, ptr, ptr, i64, i32, i32, %union.anon.0 }
%union.anon = type { ptr }
%union.anon.0 = type { ptr }
%struct.Vec_Ptr_t_ = type { i32, i32, ptr }

; Function Attrs: inlinehint nounwind uwtable
define internal ptr @Aig_Regular(ptr noundef %0) #2 {
  %2 = alloca ptr, align 8
  store ptr %0, ptr %2, align 8, !tbaa !24
  %3 = load ptr, ptr %2, align 8, !tbaa !24
  %4 = ptrtoint ptr %3 to i64
  %5 = and i64 %4, -2
  %6 = inttoptr i64 %5 to ptr
  ret ptr %6
}

; Function Attrs: inlinehint nounwind uwtable
define internal ptr @Aig_ObjFanin1(ptr noundef %0) #2 {
  %2 = alloca ptr, align 8
  store ptr %0, ptr %2, align 8, !tbaa !24
  %3 = load ptr, ptr %2, align 8, !tbaa !24
  %4 = getelementptr inbounds nuw %struct.Aig_Obj_t_, ptr %3, i32 0, i32 2
  %5 = load ptr, ptr %4, align 8, !tbaa !35
  %6 = call ptr @Aig_Regular(ptr noundef %5)
  ret ptr %6
}

; Function Attrs: inlinehint nounwind uwtable
define internal ptr @Aig_ObjChild1(ptr noundef %0) #2 {
  %2 = alloca ptr, align 8
  store ptr %0, ptr %2, align 8, !tbaa !24
  %3 = load ptr, ptr %2, align 8, !tbaa !24
  %4 = getelementptr inbounds nuw %struct.Aig_Obj_t_, ptr %3, i32 0, i32 2
  %5 = load ptr, ptr %4, align 8, !tbaa !35
  ret ptr %5
}

; Function Attrs: inlinehint nounwind uwtable
define internal void @Aig_ObjSetFanoutStatic(ptr noundef %0, ptr noundef %1) #2 {
  %3 = alloca ptr, align 8
  %4 = alloca ptr, align 8
  store ptr %0, ptr %3, align 8, !tbaa !24
  store ptr %1, ptr %4, align 8, !tbaa !24
  %5 = load ptr, ptr %4, align 8, !tbaa !24
  %6 = load ptr, ptr %3, align 8, !tbaa !24
  %7 = getelementptr inbounds nuw %struct.Aig_Obj_t_, ptr %6, i32 0, i32 6
  %8 = load ptr, ptr %7, align 8, !tbaa !25
  %9 = load ptr, ptr %3, align 8, !tbaa !24
  %10 = getelementptr inbounds nuw %struct.Aig_Obj_t_, ptr %9, i32 0, i32 3
  %11 = load i64, ptr %10, align 8
  %12 = lshr i64 %11, 6
  %13 = and i64 %12, 67108863
  %14 = trunc i64 %13 to i32
  %15 = add i32 %14, 1
  %16 = zext i32 %15 to i64
  %17 = load i64, ptr %10, align 8
  %18 = and i64 %16, 67108863
  %19 = shl i64 %18, 6
  %20 = and i64 %17, -4294967233
  %21 = or i64 %20, %19
  store i64 %21, ptr %10, align 8
  %22 = zext i32 %14 to i64
  %23 = getelementptr inbounds nuw ptr, ptr %8, i64 %22
  store ptr %5, ptr %23, align 8, !tbaa !24
  ret void
}

; Function Attrs: inlinehint nounwind uwtable
define internal ptr @Aig_ObjFanin0(ptr noundef %0) #2 {
  %2 = alloca ptr, align 8
  store ptr %0, ptr %2, align 8, !tbaa !24
  %3 = load ptr, ptr %2, align 8, !tbaa !24
  %4 = getelementptr inbounds nuw %struct.Aig_Obj_t_, ptr %3, i32 0, i32 1
  %5 = load ptr, ptr %4, align 8, !tbaa !34
  %6 = call ptr @Aig_Regular(ptr noundef %5)
  ret ptr %6
}

; Function Attrs: inlinehint nounwind uwtable
define internal ptr @Aig_ObjChild0(ptr noundef %0) #2 {
  %2 = alloca ptr, align 8
  store ptr %0, ptr %2, align 8, !tbaa !24
  %3 = load ptr, ptr %2, align 8, !tbaa !24
  %4 = getelementptr inbounds nuw %struct.Aig_Obj_t_, ptr %3, i32 0, i32 1
  %5 = load ptr, ptr %4, align 8, !tbaa !34
  ret ptr %5
}

; Function Attrs: inlinehint nounwind uwtable
define internal ptr @Vec_PtrEntry(ptr noundef %0, i32 noundef %1) #2 {
  %3 = alloca ptr, align 8
  %4 = alloca i32, align 4
  store ptr %0, ptr %3, align 8, !tbaa !29
  store i32 %1, ptr %4, align 4, !tbaa !8
  %5 = load ptr, ptr %3, align 8, !tbaa !29
  %6 = getelementptr inbounds nuw %struct.Vec_Ptr_t_, ptr %5, i32 0, i32 2
  %7 = load ptr, ptr %6, align 8, !tbaa !32
  %8 = load i32, ptr %4, align 4, !tbaa !8
  %9 = sext i32 %8 to i64
  %10 = getelementptr inbounds ptr, ptr %7, i64 %9
  %11 = load ptr, ptr %10, align 8, !tbaa !33
  ret ptr %11
}

; Function Attrs: inlinehint nounwind uwtable
define internal i32 @Vec_PtrSize(ptr noundef %0) #2 {
  %2 = alloca ptr, align 8
  store ptr %0, ptr %2, align 8, !tbaa !29
  %3 = load ptr, ptr %2, align 8, !tbaa !29
  %4 = getelementptr inbounds nuw %struct.Vec_Ptr_t_, ptr %3, i32 0, i32 1
  %5 = load i32, ptr %4, align 4, !tbaa !30
  ret i32 %5
}

; Function Attrs: inlinehint nounwind uwtable
define internal i32 @Aig_ManCoNum(ptr noundef %0) #2 {
  %2 = alloca ptr, align 8
  store ptr %0, ptr %2, align 8, !tbaa !3
  %3 = load ptr, ptr %2, align 8, !tbaa !3
  %4 = getelementptr inbounds nuw %struct.Aig_Man_t_, ptr %3, i32 0, i32 14
  %5 = getelementptr inbounds [7 x i32], ptr %4, i64 0, i64 3
  %6 = load i32, ptr %5, align 4, !tbaa !8
  ret i32 %6
}

; Function Attrs: inlinehint nounwind uwtable
define internal i32 @Aig_ManCiNum(ptr noundef %0) #2 {
  %2 = alloca ptr, align 8
  store ptr %0, ptr %2, align 8, !tbaa !3
  %3 = load ptr, ptr %2, align 8, !tbaa !3
  %4 = getelementptr inbounds nuw %struct.Aig_Man_t_, ptr %3, i32 0, i32 14
  %5 = getelementptr inbounds [7 x i32], ptr %4, i64 0, i64 2
  %6 = load i32, ptr %5, align 8, !tbaa !8
  ret i32 %6
}

; Function Attrs: inlinehint nounwind uwtable
define internal i32 @Aig_ManObjNumMax(ptr noundef %0) #2 {
  %2 = alloca ptr, align 8
  store ptr %0, ptr %2, align 8, !tbaa !3
  %3 = load ptr, ptr %2, align 8, !tbaa !3
  %4 = getelementptr inbounds nuw %struct.Aig_Man_t_, ptr %3, i32 0, i32 4
  %5 = load ptr, ptr %4, align 8, !tbaa !12
  %6 = call i32 @Vec_PtrSize(ptr noundef %5)
  ret i32 %6
}

; Function Attrs: nounwind uwtable
define ptr @Aig_ManStaticFanoutStart(ptr noundef %0) #0 {
  %2 = alloca ptr, align 8
  %3 = alloca ptr, align 8
  %4 = alloca ptr, align 8
  %5 = alloca i32, align 4
  %6 = alloca i32, align 4
  %7 = alloca i32, align 4
  store ptr %0, ptr %2, align 8, !tbaa !3
  call void @llvm.lifetime.start.p0(i64 8, ptr %3) #9
  call void @llvm.lifetime.start.p0(i64 8, ptr %4) #9
  call void @llvm.lifetime.start.p0(i64 4, ptr %5) #9
  call void @llvm.lifetime.start.p0(i64 4, ptr %6) #9
  call void @llvm.lifetime.start.p0(i64 4, ptr %7) #9
  %8 = load ptr, ptr %2, align 8, !tbaa !3
  %9 = call i32 @Aig_ManObjNumMax(ptr noundef %8)
  %10 = mul nsw i32 2, %9
  %11 = load ptr, ptr %2, align 8, !tbaa !3
  %12 = call i32 @Aig_ManCiNum(ptr noundef %11)
  %13 = sub nsw i32 %10, %12
  %14 = load ptr, ptr %2, align 8, !tbaa !3
  %15 = call i32 @Aig_ManCoNum(ptr noundef %14)
  %16 = sub nsw i32 %13, %15
  store i32 %16, ptr %7, align 4, !tbaa !8
  %17 = load i32, ptr %7, align 4, !tbaa !8
  %18 = sext i32 %17 to i64
  %19 = mul i64 8, %18
  %20 = call noalias ptr @malloc(i64 noundef %19) #10
  store ptr %20, ptr %3, align 8, !tbaa !10
  store i32 0, ptr %6, align 4, !tbaa !8
  store i32 0, ptr %5, align 4, !tbaa !8
  br label %21

21:                                               ; preds = %61, %1
  %22 = load i32, ptr %5, align 4, !tbaa !8
  %23 = load ptr, ptr %2, align 8, !tbaa !3
  %24 = getelementptr inbounds nuw %struct.Aig_Man_t_, ptr %23, i32 0, i32 4
  %25 = load ptr, ptr %24, align 8, !tbaa !12
  %26 = call i32 @Vec_PtrSize(ptr noundef %25)
  %27 = icmp slt i32 %22, %26
  br i1 %27, label %28, label %34

28:                                               ; preds = %21
  %29 = load ptr, ptr %2, align 8, !tbaa !3
  %30 = getelementptr inbounds nuw %struct.Aig_Man_t_, ptr %29, i32 0, i32 4
  %31 = load ptr, ptr %30, align 8, !tbaa !12
  %32 = load i32, ptr %5, align 4, !tbaa !8
  %33 = call ptr @Vec_PtrEntry(ptr noundef %31, i32 noundef %32)
  store ptr %33, ptr %4, align 8, !tbaa !24
  br label %34

34:                                               ; preds = %28, %21
  %35 = phi i1 [ false, %21 ], [ true, %28 ]
  br i1 %35, label %36, label %64

36:                                               ; preds = %34
  %37 = load ptr, ptr %4, align 8, !tbaa !24
  %38 = icmp eq ptr %37, null
  br i1 %38, label %39, label %40

39:                                               ; preds = %36
  br label %60

40:                                               ; preds = %36
  %41 = load ptr, ptr %3, align 8, !tbaa !10
  %42 = load i32, ptr %6, align 4, !tbaa !8
  %43 = sext i32 %42 to i64
  %44 = getelementptr inbounds ptr, ptr %41, i64 %43
  %45 = load ptr, ptr %4, align 8, !tbaa !24
  %46 = getelementptr inbounds nuw %struct.Aig_Obj_t_, ptr %45, i32 0, i32 6
  store ptr %44, ptr %46, align 8, !tbaa !25
  %47 = load ptr, ptr %4, align 8, !tbaa !24
  %48 = getelementptr inbounds nuw %struct.Aig_Obj_t_, ptr %47, i32 0, i32 3
  %49 = load i64, ptr %48, align 8
  %50 = lshr i64 %49, 6
  %51 = and i64 %50, 67108863
  %52 = trunc i64 %51 to i32
  %53 = load i32, ptr %6, align 4, !tbaa !8
  %54 = add nsw i32 %53, %52
  store i32 %54, ptr %6, align 4, !tbaa !8
  %55 = load ptr, ptr %4, align 8, !tbaa !24
  %56 = getelementptr inbounds nuw %struct.Aig_Obj_t_, ptr %55, i32 0, i32 3
  %57 = load i64, ptr %56, align 8
  %58 = and i64 %57, -4294967233
  %59 = or i64 %58, 0
  store i64 %59, ptr %56, align 8
  br label %60

60:                                               ; preds = %40, %39
  br label %61

61:                                               ; preds = %60
  %62 = load i32, ptr %5, align 4, !tbaa !8
  %63 = add nsw i32 %62, 1
  store i32 %63, ptr %5, align 4, !tbaa !8
  br label %21, !llvm.loop !26

64:                                               ; preds = %34
  store i32 0, ptr %5, align 4, !tbaa !8
  br label %65

65:                                               ; preds = %102, %64
  %66 = load i32, ptr %5, align 4, !tbaa !8
  %67 = load ptr, ptr %2, align 8, !tbaa !3
  %68 = getelementptr inbounds nuw %struct.Aig_Man_t_, ptr %67, i32 0, i32 4
  %69 = load ptr, ptr %68, align 8, !tbaa !12
  %70 = call i32 @Vec_PtrSize(ptr noundef %69)
  %71 = icmp slt i32 %66, %70
  br i1 %71, label %72, label %78

72:                                               ; preds = %65
  %73 = load ptr, ptr %2, align 8, !tbaa !3
  %74 = getelementptr inbounds nuw %struct.Aig_Man_t_, ptr %73, i32 0, i32 4
  %75 = load ptr, ptr %74, align 8, !tbaa !12
  %76 = load i32, ptr %5, align 4, !tbaa !8
  %77 = call ptr @Vec_PtrEntry(ptr noundef %75, i32 noundef %76)
  store ptr %77, ptr %4, align 8, !tbaa !24
  br label %78

78:                                               ; preds = %72, %65
  %79 = phi i1 [ false, %65 ], [ true, %72 ]
  br i1 %79, label %80, label %105

80:                                               ; preds = %78
  %81 = load ptr, ptr %4, align 8, !tbaa !24
  %82 = icmp eq ptr %81, null
  br i1 %82, label %83, label %84

83:                                               ; preds = %80
  br label %101

84:                                               ; preds = %80
  %85 = load ptr, ptr %4, align 8, !tbaa !24
  %86 = call ptr @Aig_ObjChild0(ptr noundef %85)
  %87 = icmp ne ptr %86, null
  br i1 %87, label %88, label %92

88:                                               ; preds = %84
  %89 = load ptr, ptr %4, align 8, !tbaa !24
  %90 = call ptr @Aig_ObjFanin0(ptr noundef %89)
  %91 = load ptr, ptr %4, align 8, !tbaa !24
  call void @Aig_ObjSetFanoutStatic(ptr noundef %90, ptr noundef %91)
  br label %92

92:                                               ; preds = %88, %84
  %93 = load ptr, ptr %4, align 8, !tbaa !24
  %94 = call ptr @Aig_ObjChild1(ptr noundef %93)
  %95 = icmp ne ptr %94, null
  br i1 %95, label %96, label %100

96:                                               ; preds = %92
  %97 = load ptr, ptr %4, align 8, !tbaa !24
  %98 = call ptr @Aig_ObjFanin1(ptr noundef %97)
  %99 = load ptr, ptr %4, align 8, !tbaa !24
  call void @Aig_ObjSetFanoutStatic(ptr noundef %98, ptr noundef %99)
  br label %100

100:                                              ; preds = %96, %92
  br label %101

101:                                              ; preds = %100, %83
  br label %102

102:                                              ; preds = %101
  %103 = load i32, ptr %5, align 4, !tbaa !8
  %104 = add nsw i32 %103, 1
  store i32 %104, ptr %5, align 4, !tbaa !8
  br label %65, !llvm.loop !28

105:                                              ; preds = %78
  %106 = load ptr, ptr %3, align 8, !tbaa !10
  call void @llvm.lifetime.end.p0(i64 4, ptr %7) #9
  call void @llvm.lifetime.end.p0(i64 4, ptr %6) #9
  call void @llvm.lifetime.end.p0(i64 4, ptr %5) #9
  call void @llvm.lifetime.end.p0(i64 8, ptr %4) #9
  call void @llvm.lifetime.end.p0(i64 8, ptr %3) #9
  ret ptr %106
}