; Function Attrs: nofree nounwind uwtable
define noundef ptr @Aig_ManStaticFanoutStart(ptr noundef readonly captures(none) %0) local_unnamed_addr #0 {
  %2 = getelementptr i8, ptr %0, i64 32
  %.val36 = load ptr, ptr %2, align 8, !tbaa !3
  %3 = getelementptr i8, ptr %.val36, i64 4
  %.val36.val = load i32, ptr %3, align 4, !tbaa !21
  %4 = shl nsw i32 %.val36.val, 1
  %5 = getelementptr i8, ptr %0, i64 136
  %.val37 = load i32, ptr %5, align 8, !tbaa !23
  %6 = getelementptr i8, ptr %0, i64 140
  %.val38 = load i32, ptr %6, align 4, !tbaa !23
  %7 = add i32 %.val37, %.val38
  %8 = sub i32 %4, %7
  %9 = sext i32 %8 to i64
  %10 = shl nsw i64 %9, 3
  %11 = tail call noalias ptr @malloc(i64 noundef %10) #13
  %12 = icmp sgt i32 %.val36.val, 0
  br i1 %12, label %.lr.ph, label %.critedge2

.critedge.preheader:                              ; preds = %29
  %13 = icmp sgt i32 %.val, 0
  br i1 %13, label %.lr.ph50, label %.critedge2

.lr.ph:                                           ; preds = %1, %29
  %14 = phi ptr [ %30, %29 ], [ %.val36, %1 ]
  %indvars.iv = phi i64 [ %indvars.iv.next, %29 ], [ 0, %1 ]
  %.047 = phi i32 [ %.1, %29 ], [ 0, %1 ]
  %15 = getelementptr i8, ptr %14, i64 8
  %.val39 = load ptr, ptr %15, align 8, !tbaa !24
  %16 = getelementptr inbounds nuw ptr, ptr %.val39, i64 %indvars.iv
  %17 = load ptr, ptr %16, align 8, !tbaa !25
  %18 = icmp eq ptr %17, null
  br i1 %18, label %29, label %19

19:                                               ; preds = %.lr.ph
  %20 = sext i32 %.047 to i64
  %21 = getelementptr inbounds ptr, ptr %11, i64 %20
  %22 = getelementptr inbounds nuw i8, ptr %17, i64 40
  store ptr %21, ptr %22, align 8, !tbaa !26
  %23 = getelementptr inbounds nuw i8, ptr %17, i64 24
  %24 = load i64, ptr %23, align 8
  %25 = trunc i64 %24 to i32
  %26 = lshr i32 %25, 6
  %27 = add nsw i32 %26, %.047
  %28 = and i64 %24, -4294967233
  store i64 %28, ptr %23, align 8
  %.pre = load ptr, ptr %2, align 8, !tbaa !3
  br label %29

29:                                               ; preds = %19, %.lr.ph
  %30 = phi ptr [ %14, %.lr.ph ], [ %.pre, %19 ]
  %.1 = phi i32 [ %.047, %.lr.ph ], [ %27, %19 ]
  %indvars.iv.next = add nuw nsw i64 %indvars.iv, 1
  %31 = getelementptr i8, ptr %30, i64 4
  %.val = load i32, ptr %31, align 4, !tbaa !21
  %32 = sext i32 %.val to i64
  %33 = icmp slt i64 %indvars.iv.next, %32
  br i1 %33, label %.lr.ph, label %.critedge.preheader, !llvm.loop !27

.lr.ph50:                                         ; preds = %.critedge.preheader, %.critedge
  %indvars.iv52 = phi i64 [ %indvars.iv.next53, %.critedge ], [ 0, %.critedge.preheader ]
  %34 = phi ptr [ %73, %.critedge ], [ %30, %.critedge.preheader ]
  %35 = getelementptr i8, ptr %34, i64 8
  %.val40 = load ptr, ptr %35, align 8, !tbaa !24
  %36 = getelementptr inbounds nuw ptr, ptr %.val40, i64 %indvars.iv52
  %37 = load ptr, ptr %36, align 8, !tbaa !25
  %38 = icmp eq ptr %37, null
  br i1 %38, label %.critedge, label %39

39:                                               ; preds = %.lr.ph50
  %40 = getelementptr i8, ptr %37, i64 8
  %.val41 = load ptr, ptr %40, align 8, !tbaa !29
  %.not = icmp eq ptr %.val41, null
  br i1 %.not, label %56, label %41

41:                                               ; preds = %39
  %42 = ptrtoint ptr %.val41 to i64
  %43 = and i64 %42, -2
  %44 = inttoptr i64 %43 to ptr
  %45 = getelementptr inbounds nuw i8, ptr %44, i64 40
  %46 = load ptr, ptr %45, align 8, !tbaa !26
  %47 = getelementptr inbounds nuw i8, ptr %44, i64 24
  %48 = load i64, ptr %47, align 8
  %49 = lshr i64 %48, 6
  %50 = add i64 %48, 64
  %51 = and i64 %50, 4294967232
  %52 = and i64 %48, -4294967233
  %53 = or disjoint i64 %51, %52
  store i64 %53, ptr %47, align 8
  %54 = and i64 %49, 67108863
  %55 = getelementptr inbounds nuw ptr, ptr %46, i64 %54
  store ptr %37, ptr %55, align 8, !tbaa !30
  br label %56

56:                                               ; preds = %41, %39
  %57 = getelementptr i8, ptr %37, i64 16
  %.val43 = load ptr, ptr %57, align 8, !tbaa !31
  %.not34 = icmp eq ptr %.val43, null
  br i1 %.not34, label %.critedge, label %58

58:                                               ; preds = %56
  %59 = ptrtoint ptr %.val43 to i64
  %60 = and i64 %59, -2
  %61 = inttoptr i64 %60 to ptr
  %62 = getelementptr inbounds nuw i8, ptr %61, i64 40
  %63 = load ptr, ptr %62, align 8, !tbaa !26
  %64 = getelementptr inbounds nuw i8, ptr %61, i64 24
  %65 = load i64, ptr %64, align 8
  %66 = lshr i64 %65, 6
  %67 = add i64 %65, 64
  %68 = and i64 %67, 4294967232
  %69 = and i64 %65, -4294967233
  %70 = or disjoint i64 %68, %69
  store i64 %70, ptr %64, align 8
  %71 = and i64 %66, 67108863
  %72 = getelementptr inbounds nuw ptr, ptr %63, i64 %71
  store ptr %37, ptr %72, align 8, !tbaa !30
  br label %.critedge

.critedge:                                        ; preds = %.lr.ph50, %58, %56
  %indvars.iv.next53 = add nuw nsw i64 %indvars.iv52, 1
  %73 = load ptr, ptr %2, align 8, !tbaa !3
  %74 = getelementptr i8, ptr %73, i64 4
  %.val35 = load i32, ptr %74, align 4, !tbaa !21
  %75 = sext i32 %.val35 to i64
  %76 = icmp slt i64 %indvars.iv.next53, %75
  br i1 %76, label %.lr.ph50, label %.critedge2, !llvm.loop !32

.critedge2:                                       ; preds = %.critedge, %1, %.critedge.preheader
  ret ptr %11
}